; Function Attrs: nounwind uwtable
define hidden noundef i32 @mbedtls_chacha20_crypt(ptr noundef readonly captures(none) %0, ptr noundef readonly captures(none) %1, i32 noundef %2, i64 noundef %3, ptr noundef readonly captures(none) %4, ptr noundef writeonly captures(none) %5) local_unnamed_addr #0 {
  %7 = alloca %struct.mbedtls_chacha20_context, align 8
  call void @llvm.lifetime.start.p0(i64 136, ptr nonnull %7) #10
  call void @mbedtls_platform_zeroize(ptr noundef nonnull %7, i64 noundef 64) #10
  %8 = getelementptr inbounds nuw i8, ptr %7, i64 64
  call void @mbedtls_platform_zeroize(ptr noundef nonnull %8, i64 noundef 64) #10
  %9 = getelementptr inbounds nuw i8, ptr %7, i64 128
  store i64 64, ptr %9, align 8, !tbaa !3
  store i32 1634760805, ptr %7, align 8, !tbaa !8
  %10 = getelementptr inbounds nuw i8, ptr %7, i64 4
  store i32 857760878, ptr %10, align 4, !tbaa !8
  %11 = getelementptr inbounds nuw i8, ptr %7, i64 8
  store i32 2036477234, ptr %11, align 8, !tbaa !8
  %12 = getelementptr inbounds nuw i8, ptr %7, i64 12
  store i32 1797285236, ptr %12, align 4, !tbaa !8
  %.0.copyload.i.i = load i32, ptr %0, align 1
  %13 = getelementptr inbounds nuw i8, ptr %7, i64 16
  store i32 %.0.copyload.i.i, ptr %13, align 8, !tbaa !8
  %14 = getelementptr inbounds nuw i8, ptr %0, i64 4
  %.0.copyload.i20.i = load i32, ptr %14, align 1
  %15 = getelementptr inbounds nuw i8, ptr %7, i64 20
  store i32 %.0.copyload.i20.i, ptr %15, align 4, !tbaa !8
  %16 = getelementptr inbounds nuw i8, ptr %0, i64 8
  %.0.copyload.i21.i = load i32, ptr %16, align 1
  %17 = getelementptr inbounds nuw i8, ptr %7, i64 24
  store i32 %.0.copyload.i21.i, ptr %17, align 8, !tbaa !8
  %18 = getelementptr inbounds nuw i8, ptr %0, i64 12
  %.0.copyload.i22.i = load i32, ptr %18, align 1
  %19 = getelementptr inbounds nuw i8, ptr %7, i64 28
  store i32 %.0.copyload.i22.i, ptr %19, align 4, !tbaa !8
  %20 = getelementptr inbounds nuw i8, ptr %0, i64 16
  %.0.copyload.i23.i = load i32, ptr %20, align 1
  %21 = getelementptr inbounds nuw i8, ptr %7, i64 32
  store i32 %.0.copyload.i23.i, ptr %21, align 8, !tbaa !8
  %22 = getelementptr inbounds nuw i8, ptr %0, i64 20
  %.0.copyload.i24.i = load i32, ptr %22, align 1
  %23 = getelementptr inbounds nuw i8, ptr %7, i64 36
  store i32 %.0.copyload.i24.i, ptr %23, align 4, !tbaa !8
  %24 = getelementptr inbounds nuw i8, ptr %0, i64 24
  %.0.copyload.i25.i = load i32, ptr %24, align 1
  %25 = getelementptr inbounds nuw i8, ptr %7, i64 40
  store i32 %.0.copyload.i25.i, ptr %25, align 8, !tbaa !8
  %26 = getelementptr inbounds nuw i8, ptr %0, i64 28
  %.0.copyload.i26.i = load i32, ptr %26, align 1
  %27 = getelementptr inbounds nuw i8, ptr %7, i64 44
  store i32 %.0.copyload.i26.i, ptr %27, align 4, !tbaa !8
  %28 = getelementptr inbounds nuw i8, ptr %7, i64 48
  store i32 %2, ptr %28, align 8, !tbaa !8
  %.0.copyload.i10.i = load i32, ptr %1, align 1
  %29 = getelementptr inbounds nuw i8, ptr %7, i64 52
  store i32 %.0.copyload.i10.i, ptr %29, align 4, !tbaa !8
  %30 = getelementptr inbounds nuw i8, ptr %1, i64 4
  %.0.copyload.i9.i = load i32, ptr %30, align 1
  %31 = getelementptr inbounds nuw i8, ptr %7, i64 56
  store i32 %.0.copyload.i9.i, ptr %31, align 8, !tbaa !8
  %32 = getelementptr inbounds nuw i8, ptr %1, i64 8
  %.0.copyload.i.i10 = load i32, ptr %32, align 1
  %33 = getelementptr inbounds nuw i8, ptr %7, i64 60
  store i32 %.0.copyload.i.i10, ptr %33, align 4, !tbaa !8
  call void @mbedtls_platform_zeroize(ptr noundef nonnull %8, i64 noundef 64) #10
  store i64 64, ptr %9, align 8, !tbaa !3
  %34 = call i32 @mbedtls_chacha20_update(ptr noundef nonnull %7, i64 noundef %3, ptr noundef %4, ptr noundef %5)
  call void @mbedtls_platform_zeroize(ptr noundef nonnull %7, i64 noundef 136) #10
  call void @llvm.lifetime.end.p0(i64 136, ptr nonnull %7) #10
  ret i32 0
}